; ModuleID = '46/1756.c'
source_filename = "46/1756.c"
target datalayout = "e-m:e-p270:32:32-p271:32:32-p272:64:64-i64:64-f80:128-n8:16:32:64-S128"
target triple = "x86_64-pc-linux-gnu"

@.str = private unnamed_addr constant [6 x i8] c"%d %d\00", align 1
@.str.1 = private unnamed_addr constant [3 x i8] c"%d\00", align 1
@.str.2 = private unnamed_addr constant [4 x i8] c"%d\0A\00", align 1

; Function Attrs: noinline nounwind uwtable
define dso_local i32 @main() #0 {
  %1 = alloca i32, align 4
  %2 = alloca [100 x [100 x i32]], align 16
  %3 = alloca i32, align 4
  %4 = alloca i32, align 4
  %5 = alloca i32, align 4
  %6 = alloca i32, align 4
  %7 = alloca i32, align 4
  %8 = alloca i32, align 4
  %9 = alloca i32, align 4
  %10 = alloca i32, align 4
  store i32 0, i32* %1, align 4
  store i32 0, i32* %10, align 4
  %11 = call i32 (i8*, ...) @__isoc99_scanf(i8* getelementptr inbounds ([6 x i8], [6 x i8]* @.str, i64 0, i64 0), i32* %3, i32* %4)
  store i32 0, i32* %5, align 4
  br label %12

12:                                               ; preds = %33, %0
  %13 = load i32, i32* %5, align 4
  %14 = load i32, i32* %3, align 4
  %15 = icmp slt i32 %13, %14
  br i1 %15, label %16, label %36

16:                                               ; preds = %12
  store i32 0, i32* %6, align 4
  br label %17

17:                                               ; preds = %29, %16
  %18 = load i32, i32* %6, align 4
  %19 = load i32, i32* %4, align 4
  %20 = icmp slt i32 %18, %19
  br i1 %20, label %21, label %32

21:                                               ; preds = %17
  %22 = load i32, i32* %5, align 4
  %23 = sext i32 %22 to i64
  %24 = getelementptr inbounds [100 x [100 x i32]], [100 x [100 x i32]]* %2, i64 0, i64 %23
  %25 = load i32, i32* %6, align 4
  %26 = sext i32 %25 to i64
  %27 = getelementptr inbounds [100 x i32], [100 x i32]* %24, i64 0, i64 %26
  %28 = call i32 (i8*, ...) @__isoc99_scanf(i8* getelementptr inbounds ([3 x i8], [3 x i8]* @.str.1, i64 0, i64 0), i32* %27)
  br label %29

29:                                               ; preds = %21
  %30 = load i32, i32* %6, align 4
  %31 = add nsw i32 %30, 1
  store i32 %31, i32* %6, align 4
  br label %17

32:                                               ; preds = %17
  br label %33

33:                                               ; preds = %32
  %34 = load i32, i32* %5, align 4
  %35 = add nsw i32 %34, 1
  store i32 %35, i32* %5, align 4
  br label %12

36:                                               ; preds = %12
  %37 = load i32, i32* %3, align 4
  %38 = sub nsw i32 %37, 1
  %39 = sdiv i32 %38, 2
  store i32 %39, i32* %8, align 4
  %40 = load i32, i32* %4, align 4
  %41 = sub nsw i32 %40, 1
  %42 = sdiv i32 %41, 2
  store i32 %42, i32* %9, align 4
  store i32 0, i32* %7, align 4
  br label %43

43:                                               ; preds = %184, %36
  %44 = load i32, i32* %7, align 4
  %45 = load i32, i32* %8, align 4
  %46 = icmp sle i32 %44, %45
  br i1 %46, label %47, label %51

47:                                               ; preds = %43
  %48 = load i32, i32* %7, align 4
  %49 = load i32, i32* %9, align 4
  %50 = icmp sle i32 %48, %49
  br label %51

51:                                               ; preds = %47, %43
  %52 = phi i1 [ false, %43 ], [ %50, %47 ]
  br i1 %52, label %53, label %187

53:                                               ; preds = %51
  %54 = load i32, i32* %7, align 4
  store i32 %54, i32* %5, align 4
  %55 = load i32, i32* %7, align 4
  store i32 %55, i32* %6, align 4
  br label %56

56:                                               ; preds = %80, %53
  %57 = load i32, i32* %6, align 4
  %58 = load i32, i32* %4, align 4
  %59 = load i32, i32* %7, align 4
  %60 = sub nsw i32 %58, %59
  %61 = icmp slt i32 %57, %60
  br i1 %61, label %62, label %83

62:                                               ; preds = %56
  %63 = load i32, i32* %10, align 4
  %64 = add nsw i32 %63, 1
  store i32 %64, i32* %10, align 4
  %65 = load i32, i32* %5, align 4
  %66 = sext i32 %65 to i64
  %67 = getelementptr inbounds [100 x [100 x i32]], [100 x [100 x i32]]* %2, i64 0, i64 %66
  %68 = load i32, i32* %6, align 4
  %69 = sext i32 %68 to i64
  %70 = getelementptr inbounds [100 x i32], [100 x i32]* %67, i64 0, i64 %69
  %71 = load i32, i32* %70, align 4
  %72 = call i32 (i8*, ...) @printf(i8* getelementptr inbounds ([4 x i8], [4 x i8]* @.str.2, i64 0, i64 0), i32 %71)
  %73 = load i32, i32* %10, align 4
  %74 = load i32, i32* %3, align 4
  %75 = load i32, i32* %4, align 4
  %76 = mul nsw i32 %74, %75
  %77 = icmp eq i32 %73, %76
  br i1 %77, label %78, label %79

78:                                               ; preds = %62
  br label %188

79:                                               ; preds = %62
  br label %80

80:                                               ; preds = %79
  %81 = load i32, i32* %6, align 4
  %82 = add nsw i32 %81, 1
  store i32 %82, i32* %6, align 4
  br label %56

83:                                               ; preds = %56
  %84 = load i32, i32* %4, align 4
  %85 = sub nsw i32 %84, 1
  %86 = load i32, i32* %7, align 4
  %87 = sub nsw i32 %85, %86
  store i32 %87, i32* %6, align 4
  %88 = load i32, i32* %7, align 4
  %89 = add nsw i32 %88, 1
  store i32 %89, i32* %5, align 4
  br label %90

90:                                               ; preds = %114, %83
  %91 = load i32, i32* %5, align 4
  %92 = load i32, i32* %3, align 4
  %93 = load i32, i32* %7, align 4
  %94 = sub nsw i32 %92, %93
  %95 = icmp slt i32 %91, %94
  br i1 %95, label %96, label %117

96:                                               ; preds = %90
  %97 = load i32, i32* %10, align 4
  %98 = add nsw i32 %97, 1
  store i32 %98, i32* %10, align 4
  %99 = load i32, i32* %5, align 4
  %100 = sext i32 %99 to i64
  %101 = getelementptr inbounds [100 x [100 x i32]], [100 x [100 x i32]]* %2, i64 0, i64 %100
  %102 = load i32, i32* %6, align 4
  %103 = sext i32 %102 to i64
  %104 = getelementptr inbounds [100 x i32], [100 x i32]* %101, i64 0, i64 %103
  %105 = load i32, i32* %104, align 4
  %106 = call i32 (i8*, ...) @printf(i8* getelementptr inbounds ([4 x i8], [4 x i8]* @.str.2, i64 0, i64 0), i32 %105)
  %107 = load i32, i32* %10, align 4
  %108 = load i32, i32* %3, align 4
  %109 = load i32, i32* %4, align 4
  %110 = mul nsw i32 %108, %109
  %111 = icmp eq i32 %107, %110
  br i1 %111, label %112, label %113

112:                                              ; preds = %96
  br label %188

113:                                              ; preds = %96
  br label %114

114:                                              ; preds = %113
  %115 = load i32, i32* %5, align 4
  %116 = add nsw i32 %115, 1
  store i32 %116, i32* %5, align 4
  br label %90

117:                                              ; preds = %90
  %118 = load i32, i32* %3, align 4
  %119 = sub nsw i32 %118, 1
  %120 = load i32, i32* %7, align 4
  %121 = sub nsw i32 %119, %120
  store i32 %121, i32* %5, align 4
  %122 = load i32, i32* %4, align 4
  %123 = load i32, i32* %7, align 4
  %124 = sub nsw i32 %122, %123
  %125 = sub nsw i32 %124, 2
  store i32 %125, i32* %6, align 4
  br label %126

126:                                              ; preds = %148, %117
  %127 = load i32, i32* %6, align 4
  %128 = load i32, i32* %7, align 4
  %129 = icmp sge i32 %127, %128
  br i1 %129, label %130, label %151

130:                                              ; preds = %126
  %131 = load i32, i32* %10, align 4
  %132 = add nsw i32 %131, 1
  store i32 %132, i32* %10, align 4
  %133 = load i32, i32* %5, align 4
  %134 = sext i32 %133 to i64
  %135 = getelementptr inbounds [100 x [100 x i32]], [100 x [100 x i32]]* %2, i64 0, i64 %134
  %136 = load i32, i32* %6, align 4
  %137 = sext i32 %136 to i64
  %138 = getelementptr inbounds [100 x i32], [100 x i32]* %135, i64 0, i64 %137
  %139 = load i32, i32* %138, align 4
  %140 = call i32 (i8*, ...) @printf(i8* getelementptr inbounds ([4 x i8], [4 x i8]* @.str.2, i64 0, i64 0), i32 %139)
  %141 = load i32, i32* %10, align 4
  %142 = load i32, i32* %3, align 4
  %143 = load i32, i32* %4, align 4
  %144 = mul nsw i32 %142, %143
  %145 = icmp eq i32 %141, %144
  br i1 %145, label %146, label %147

146:                                              ; preds = %130
  br label %188

147:                                              ; preds = %130
  br label %148

148:                                              ; preds = %147
  %149 = load i32, i32* %6, align 4
  %150 = add nsw i32 %149, -1
  store i32 %150, i32* %6, align 4
  br label %126

151:                                              ; preds = %126
  %152 = load i32, i32* %7, align 4
  store i32 %152, i32* %6, align 4
  %153 = load i32, i32* %3, align 4
  %154 = load i32, i32* %7, align 4
  %155 = sub nsw i32 %153, %154
  %156 = sub nsw i32 %155, 2
  store i32 %156, i32* %5, align 4
  br label %157

157:                                              ; preds = %180, %151
  %158 = load i32, i32* %5, align 4
  %159 = load i32, i32* %7, align 4
  %160 = add nsw i32 %159, 1
  %161 = icmp sge i32 %158, %160
  br i1 %161, label %162, label %183

162:                                              ; preds = %157
  %163 = load i32, i32* %10, align 4
  %164 = add nsw i32 %163, 1
  store i32 %164, i32* %10, align 4
  %165 = load i32, i32* %5, align 4
  %166 = sext i32 %165 to i64
  %167 = getelementptr inbounds [100 x [100 x i32]], [100 x [100 x i32]]* %2, i64 0, i64 %166
  %168 = load i32, i32* %6, align 4
  %169 = sext i32 %168 to i64
  %170 = getelementptr inbounds [100 x i32], [100 x i32]* %167, i64 0, i64 %169
  %171 = load i32, i32* %170, align 4
  %172 = call i32 (i8*, ...) @printf(i8* getelementptr inbounds ([4 x i8], [4 x i8]* @.str.2, i64 0, i64 0), i32 %171)
  %173 = load i32, i32* %10, align 4
  %174 = load i32, i32* %3, align 4
  %175 = load i32, i32* %4, align 4
  %176 = mul nsw i32 %174, %175
  %177 = icmp eq i32 %173, %176
  br i1 %177, label %178, label %179

178:                                              ; preds = %162
  br label %188

179:                                              ; preds = %162
  br label %180

180:                                              ; preds = %179
  %181 = load i32, i32* %5, align 4
  %182 = add nsw i32 %181, -1
  store i32 %182, i32* %5, align 4
  br label %157

183:                                              ; preds = %157
  br label %184

184:                                              ; preds = %183
  %185 = load i32, i32* %7, align 4
  %186 = add nsw i32 %185, 1
  store i32 %186, i32* %7, align 4
  br label %43

187:                                              ; preds = %51
  br label %188

188:                                              ; preds = %187, %178, %146, %112, %78
  ret i32 0
}

declare dso_local i32 @__isoc99_scanf(i8*, ...) #1

declare dso_local i32 @printf(i8*, ...) #1


!llvm.module.flags = !{!0}
!llvm.ident = !{!1}

!0 = !{i32 1, !"wchar_size", i32 4}
!1 = !{!"clang version 10.0.0-4ubuntu1 "}
